target datalayout = "e-m:e-p270:32:32-p271:32:32-p272:64:64-i64:64-i128:128-f80:128-n8:16:32:64-S128"
target triple = "x86_64-pc-linux-gnu"

%"class.google::protobuf::internal::LogMessage" = type { i32, ptr, i32, %"class.std::__cxx11::basic_string" }
%"class.std::__cxx11::basic_string" = type { %"struct.std::__cxx11::basic_string<char>::_Alloc_hider", i64, %union.anon }
%"struct.std::__cxx11::basic_string<char>::_Alloc_hider" = type { ptr }
%union.anon = type { i64, [8 x i8] }
%"class.google::protobuf::internal::LogFinisher" = type { i8 }
%"class.google::protobuf::strings::UncheckedArrayByteSink" = type { %"class.google::protobuf::strings::ByteSink", ptr }
%"class.google::protobuf::strings::ByteSink" = type { ptr }

@.str = private unnamed_addr constant [40 x i8] c"third_party/protobuf-lite/bytestream.cc\00", align 1
@.str.2 = private unnamed_addr constant [55 x i8] c"CHECK failed: !(dest_ <= data && data < (dest_ + n)): \00", align 1
@.str.3 = private unnamed_addr constant [38 x i8] c"Append() data[] overlaps with dest_[]\00", align 1

; Function Attrs: mustprogress uwtable
define void @_ZN6google8protobuf7strings22UncheckedArrayByteSink6AppendEPKcm(ptr noundef nonnull align 8 dereferenceable(16) %0, ptr noundef %1, i64 noundef %2) unnamed_addr #4 align 2 personality ptr @__gxx_personality_v0 {
  %4 = alloca ptr, align 8
  %5 = alloca ptr, align 8
  %6 = alloca i64, align 8
  %7 = alloca %"class.google::protobuf::internal::LogMessage", align 8
  %8 = alloca i1, align 1
  %9 = alloca ptr, align 8
  %10 = alloca i32, align 4
  %11 = alloca %"class.google::protobuf::internal::LogFinisher", align 1
  store ptr %0, ptr %4, align 8
  store ptr %1, ptr %5, align 8
  store i64 %2, ptr %6, align 8
  %12 = load ptr, ptr %4, align 8
  %13 = load ptr, ptr %5, align 8
  %14 = getelementptr inbounds %"class.google::protobuf::strings::UncheckedArrayByteSink", ptr %12, i32 0, i32 1
  %15 = load ptr, ptr %14, align 8
  %16 = icmp ne ptr %13, %15
  br i1 %16, label %17, label %54

17:                                               ; preds = %3
  br label %18

18:                                               ; preds = %41, %17
  br i1 false, label %19, label %49

19:                                               ; preds = %18
  %20 = getelementptr inbounds %"class.google::protobuf::strings::UncheckedArrayByteSink", ptr %12, i32 0, i32 1
  %21 = load ptr, ptr %20, align 8
  %22 = load ptr, ptr %5, align 8
  %23 = icmp ule ptr %21, %22
  store i1 false, ptr %8, align 1
  br i1 %23, label %24, label %31

24:                                               ; preds = %19
  %25 = load ptr, ptr %5, align 8
  %26 = getelementptr inbounds %"class.google::protobuf::strings::UncheckedArrayByteSink", ptr %12, i32 0, i32 1
  %27 = load ptr, ptr %26, align 8
  %28 = load i64, ptr %6, align 8
  %29 = getelementptr inbounds i8, ptr %27, i64 %28
  %30 = icmp ult ptr %25, %29
  br i1 %30, label %32, label %31

31:                                               ; preds = %24, %19
  br label %38

32:                                               ; preds = %24
  call void @_ZN6google8protobuf8internal10LogMessageC1ENS0_8LogLevelEPKci(ptr noundef nonnull align 8 dereferenceable(56) %7, i32 noundef 3, ptr noundef @.str, i32 noundef 61)
  store i1 true, ptr %8, align 1
  %33 = invoke noundef nonnull align 8 dereferenceable(56) ptr @_ZN6google8protobuf8internal10LogMessagelsEPKc(ptr noundef nonnull align 8 dereferenceable(56) %7, ptr noundef @.str.2)
          to label %34 unwind label %42

34:                                               ; preds = %32
  %35 = invoke noundef nonnull align 8 dereferenceable(56) ptr @_ZN6google8protobuf8internal10LogMessagelsEPKc(ptr noundef nonnull align 8 dereferenceable(56) %33, ptr noundef @.str.3)
          to label %36 unwind label %42

36:                                               ; preds = %34
  invoke void @_ZN6google8protobuf8internal11LogFinisheraSERNS1_10LogMessageE(ptr noundef nonnull align 1 dereferenceable(1) %11, ptr noundef nonnull align 8 dereferenceable(56) %35)
          to label %37 unwind label %42

37:                                               ; preds = %36
  br label %38

38:                                               ; preds = %37, %31
  %39 = load i1, ptr %8, align 1
  br i1 %39, label %40, label %41

40:                                               ; preds = %38
  call void @_ZN6google8protobuf8internal10LogMessageD1Ev(ptr noundef nonnull align 8 dereferenceable(56) %7) #3
  br label %41

41:                                               ; preds = %40, %38
  br label %18, !llvm.loop !6

42:                                               ; preds = %36, %34, %32
  %43 = landingpad { ptr, i32 }
          cleanup
  %44 = extractvalue { ptr, i32 } %43, 0
  store ptr %44, ptr %9, align 8
  %45 = extractvalue { ptr, i32 } %43, 1
  store i32 %45, ptr %10, align 4
  %46 = load i1, ptr %8, align 1
  br i1 %46, label %47, label %48

47:                                               ; preds = %42
  call void @_ZN6google8protobuf8internal10LogMessageD1Ev(ptr noundef nonnull align 8 dereferenceable(56) %7) #3
  br label %48

48:                                               ; preds = %47, %42
  br label %59

49:                                               ; preds = %18
  %50 = getelementptr inbounds %"class.google::protobuf::strings::UncheckedArrayByteSink", ptr %12, i32 0, i32 1
  %51 = load ptr, ptr %50, align 8
  %52 = load ptr, ptr %5, align 8
  %53 = load i64, ptr %6, align 8
  call void @llvm.memcpy.p0.p0.i64(ptr align 1 %51, ptr align 1 %52, i64 %53, i1 false)
  br label %54

54:                                               ; preds = %49, %3
  %55 = load i64, ptr %6, align 8
  %56 = getelementptr inbounds %"class.google::protobuf::strings::UncheckedArrayByteSink", ptr %12, i32 0, i32 1
  %57 = load ptr, ptr %56, align 8
  %58 = getelementptr inbounds i8, ptr %57, i64 %55
  store ptr %58, ptr %56, align 8
  ret void

59:                                               ; preds = %48
  %60 = load ptr, ptr %9, align 8
  %61 = load i32, ptr %10, align 4
  %62 = insertvalue { ptr, i32 } poison, ptr %60, 0
  %63 = insertvalue { ptr, i32 } %62, i32 %61, 1
  resume { ptr, i32 } %63
}