; Function Attrs: mustprogress nofree norecurse nosync nounwind willreturn memory(readwrite, inaccessiblemem: none) uwtable
define void @_ZN6google8protobuf7strings22UncheckedArrayByteSink6AppendEPKcm(ptr nocapture noundef nonnull align 8 dereferenceable(16) %0, ptr noundef readonly %1, i64 noundef %2) unnamed_addr #5 align 2 personality ptr @__gxx_personality_v0 {
  %4 = getelementptr inbounds i8, ptr %0, i64 8
  %5 = load ptr, ptr %4, align 8
  %.not = icmp eq ptr %5, %1
  br i1 %.not, label %7, label %6

6:                                                ; preds = %3
  tail call void @llvm.memcpy.p0.p0.i64(ptr align 1 %5, ptr align 1 %1, i64 %2, i1 false)
  %.pre = load ptr, ptr %4, align 8
  br label %7

7:                                                ; preds = %6, %3
  %8 = phi ptr [ %.pre, %6 ], [ %5, %3 ]
  %9 = getelementptr inbounds i8, ptr %8, i64 %2
  store ptr %9, ptr %4, align 8
  ret void
}